target datalayout = "e-m:e-p270:32:32-p271:32:32-p272:64:64-i64:64-i128:128-f80:128-n8:16:32:64-S128"
target triple = "x86_64-pc-linux-gnu"

%struct.ARKodeMemRec = type { ptr, double, ptr, i32, i32, double, double, ptr, i32, double, ptr, i32, i32, ptr, ptr, i32, ptr, ptr, i32, ptr, ptr, ptr, ptr, ptr, ptr, ptr, ptr, ptr, ptr, ptr, ptr, ptr, ptr, ptr, i32, ptr, ptr, i32, ptr, i32, ptr, ptr, ptr, ptr, ptr, ptr, ptr, ptr, ptr, ptr, ptr, ptr, ptr, ptr, ptr, ptr, ptr, ptr, ptr, ptr, ptr, ptr, ptr, ptr, ptr, ptr, i32, ptr, ptr, ptr, ptr, ptr, ptr, ptr, i32, ptr, ptr, ptr, i32, ptr, ptr, ptr, ptr, ptr, ptr, ptr, i32, i32, i32, i32, double, double, double, double, double, double, double, double, double, double, i32, ptr, i64, i32, i32, i32, i32, i64, i64, i32, i64, i64, i64, i64, i64, i64, i64, double, double, double, double, double, i32, double, double, i32, i32, i32, i32, i32, i32, i32, i32, ptr, i32, ptr, ptr, ptr, ptr, i32, i32, i32 }
%struct.ARKodeLSRKStepMemRec = type { ptr, ptr, i32, i32, i32, i32, i64, i64, i32, i32, i64, i64, double, double, double, double, double, double, i64, i32, i32, i32, i32, ptr, ptr, i32 }

@.str = private unnamed_addr constant [124 x i8] c"generated/home/dtcxzyw/WorkSpace/Projects/compilers/llvm-opt-benchmark/bench/sundials/sundials/src/arkode/arkode_lsrkstep.c\00", align 1
@__func__.lsrkStep_FullRHS = private unnamed_addr constant [17 x i8] c"lsrkStep_FullRHS\00", align 1
@.str.11 = private unnamed_addr constant [75 x i8] c"At t = %lg, the right-hand side routine failed in an unrecoverable manner.\00", align 1
@.str.12 = private unnamed_addr constant [22 x i8] c"Unknown full RHS mode\00", align 1
@.str.39 = private unnamed_addr constant [33 x i8] c"Time step module memory is NULL.\00", align 1

; Function Attrs: nounwind uwtable
define i32 @lsrkStep_AccessStepMem(ptr noundef %0, ptr noundef %1, ptr noundef %2) #0 {
  %4 = alloca i32, align 4
  %5 = alloca ptr, align 8
  %6 = alloca ptr, align 8
  %7 = alloca ptr, align 8
  store ptr %0, ptr %5, align 8, !tbaa !13
  store ptr %1, ptr %6, align 8, !tbaa !110
  store ptr %2, ptr %7, align 8, !tbaa !114
  %8 = load ptr, ptr %5, align 8, !tbaa !13
  %9 = getelementptr inbounds nuw %struct.ARKodeMemRec, ptr %8, i32 0, i32 19
  %10 = load ptr, ptr %9, align 8, !tbaa !35
  %11 = icmp eq ptr %10, null
  br i1 %11, label %12, label %15

12:                                               ; preds = %3
  %13 = load ptr, ptr %5, align 8, !tbaa !13
  %14 = load ptr, ptr %6, align 8, !tbaa !110
  call void (ptr, i32, i32, ptr, ptr, ptr, ...) @arkProcessError(ptr noundef %13, i32 noundef -21, i32 noundef 2160, ptr noundef %14, ptr noundef @.str, ptr noundef @.str.39)
  store i32 -21, ptr %4, align 4
  br label %20

15:                                               ; preds = %3
  %16 = load ptr, ptr %5, align 8, !tbaa !13
  %17 = getelementptr inbounds nuw %struct.ARKodeMemRec, ptr %16, i32 0, i32 19
  %18 = load ptr, ptr %17, align 8, !tbaa !35
  %19 = load ptr, ptr %7, align 8, !tbaa !114
  store ptr %18, ptr %19, align 8, !tbaa !17
  store i32 0, ptr %4, align 4
  br label %20

20:                                               ; preds = %15, %12
  %21 = load i32, ptr %4, align 4
  ret i32 %21
}

; Function Attrs: nounwind uwtable
define i32 @lsrkStep_FullRHS(ptr noundef %0, double noundef %1, ptr noundef %2, ptr noundef %3, i32 noundef %4) #0 {
  %6 = alloca i32, align 4
  %7 = alloca ptr, align 8
  %8 = alloca double, align 8
  %9 = alloca ptr, align 8
  %10 = alloca ptr, align 8
  %11 = alloca i32, align 4
  %12 = alloca i32, align 4
  %13 = alloca ptr, align 8
  %14 = alloca i32, align 4
  store ptr %0, ptr %7, align 8, !tbaa !13
  store double %1, ptr %8, align 8, !tbaa !7
  store ptr %2, ptr %9, align 8, !tbaa !9
  store ptr %3, ptr %10, align 8, !tbaa !9
  store i32 %4, ptr %11, align 4, !tbaa !15
  call void @llvm.lifetime.start.p0(i64 4, ptr %12) #6
  call void @llvm.lifetime.start.p0(i64 8, ptr %13) #6
  %15 = load ptr, ptr %7, align 8, !tbaa !13
  %16 = call i32 @lsrkStep_AccessStepMem(ptr noundef %15, ptr noundef @__func__.lsrkStep_FullRHS, ptr noundef %13)
  store i32 %16, ptr %12, align 4, !tbaa !15
  %17 = load i32, ptr %12, align 4, !tbaa !15
  %18 = icmp ne i32 %17, 0
  br i1 %18, label %19, label %21

19:                                               ; preds = %5
  %20 = load i32, ptr %12, align 4, !tbaa !15
  store i32 %20, ptr %6, align 4
  store i32 1, ptr %14, align 4
  br label %109

21:                                               ; preds = %5
  %22 = load i32, ptr %11, align 4, !tbaa !15
  switch i32 %22, label %106 [
    i32 0, label %23
    i32 1, label %50
    i32 2, label %85
  ]

23:                                               ; preds = %21
  %24 = load ptr, ptr %7, align 8, !tbaa !13
  %25 = getelementptr inbounds nuw %struct.ARKodeMemRec, ptr %24, i32 0, i32 78
  %26 = load i32, ptr %25, align 8, !tbaa !74
  %27 = icmp ne i32 %26, 0
  br i1 %27, label %49, label %28

28:                                               ; preds = %23
  %29 = load ptr, ptr %13, align 8, !tbaa !17
  %30 = getelementptr inbounds nuw %struct.ARKodeLSRKStepMemRec, ptr %29, i32 0, i32 0
  %31 = load ptr, ptr %30, align 8, !tbaa !37
  %32 = load double, ptr %8, align 8, !tbaa !7
  %33 = load ptr, ptr %9, align 8, !tbaa !9
  %34 = load ptr, ptr %10, align 8, !tbaa !9
  %35 = load ptr, ptr %7, align 8, !tbaa !13
  %36 = getelementptr inbounds nuw %struct.ARKodeMemRec, ptr %35, i32 0, i32 2
  %37 = load ptr, ptr %36, align 8, !tbaa !75
  %38 = call i32 %31(double noundef %32, ptr noundef %33, ptr noundef %34, ptr noundef %37)
  store i32 %38, ptr %12, align 4, !tbaa !15
  %39 = load ptr, ptr %13, align 8, !tbaa !17
  %40 = getelementptr inbounds nuw %struct.ARKodeLSRKStepMemRec, ptr %39, i32 0, i32 6
  %41 = load i64, ptr %40, align 8, !tbaa !42
  %42 = add nsw i64 %41, 1
  store i64 %42, ptr %40, align 8, !tbaa !42
  %43 = load i32, ptr %12, align 4, !tbaa !15
  %44 = icmp ne i32 %43, 0
  br i1 %44, label %45, label %48

45:                                               ; preds = %28
  %46 = load ptr, ptr %7, align 8, !tbaa !13
  %47 = load double, ptr %8, align 8, !tbaa !7
  call void (ptr, i32, i32, ptr, ptr, ptr, ...) @arkProcessError(ptr noundef %46, i32 noundef -8, i32 noundef 417, ptr noundef @__func__.lsrkStep_FullRHS, ptr noundef @.str, ptr noundef @.str.11, double noundef %47)
  store i32 -8, ptr %6, align 4
  store i32 1, ptr %14, align 4
  br label %109

48:                                               ; preds = %28
  br label %49

49:                                               ; preds = %48, %23
  br label %108

50:                                               ; preds = %21
  %51 = load ptr, ptr %13, align 8, !tbaa !17
  %52 = getelementptr inbounds nuw %struct.ARKodeLSRKStepMemRec, ptr %51, i32 0, i32 22
  %53 = load i32, ptr %52, align 4, !tbaa !72
  %54 = icmp ne i32 %53, 0
  br i1 %54, label %55, label %80

55:                                               ; preds = %50
  %56 = load ptr, ptr %13, align 8, !tbaa !17
  %57 = getelementptr inbounds nuw %struct.ARKodeLSRKStepMemRec, ptr %56, i32 0, i32 0
  %58 = load ptr, ptr %57, align 8, !tbaa !37
  %59 = load double, ptr %8, align 8, !tbaa !7
  %60 = load ptr, ptr %9, align 8, !tbaa !9
  %61 = load ptr, ptr %7, align 8, !tbaa !13
  %62 = getelementptr inbounds nuw %struct.ARKodeMemRec, ptr %61, i32 0, i32 77
  %63 = load ptr, ptr %62, align 8, !tbaa !76
  %64 = load ptr, ptr %7, align 8, !tbaa !13
  %65 = getelementptr inbounds nuw %struct.ARKodeMemRec, ptr %64, i32 0, i32 2
  %66 = load ptr, ptr %65, align 8, !tbaa !75
  %67 = call i32 %58(double noundef %59, ptr noundef %60, ptr noundef %63, ptr noundef %66)
  store i32 %67, ptr %12, align 4, !tbaa !15
  %68 = load ptr, ptr %13, align 8, !tbaa !17
  %69 = getelementptr inbounds nuw %struct.ARKodeLSRKStepMemRec, ptr %68, i32 0, i32 6
  %70 = load i64, ptr %69, align 8, !tbaa !42
  %71 = add nsw i64 %70, 1
  store i64 %71, ptr %69, align 8, !tbaa !42
  %72 = load ptr, ptr %7, align 8, !tbaa !13
  %73 = getelementptr inbounds nuw %struct.ARKodeMemRec, ptr %72, i32 0, i32 78
  store i32 1, ptr %73, align 8, !tbaa !74
  %74 = load i32, ptr %12, align 4, !tbaa !15
  %75 = icmp ne i32 %74, 0
  br i1 %75, label %76, label %79

76:                                               ; preds = %55
  %77 = load ptr, ptr %7, align 8, !tbaa !13
  %78 = load double, ptr %8, align 8, !tbaa !7
  call void (ptr, i32, i32, ptr, ptr, ptr, ...) @arkProcessError(ptr noundef %77, i32 noundef -8, i32 noundef 437, ptr noundef @__func__.lsrkStep_FullRHS, ptr noundef @.str, ptr noundef @.str.11, double noundef %78)
  store i32 -8, ptr %6, align 4
  store i32 1, ptr %14, align 4
  br label %109

79:                                               ; preds = %55
  br label %80

80:                                               ; preds = %79, %50
  %81 = load ptr, ptr %7, align 8, !tbaa !13
  %82 = getelementptr inbounds nuw %struct.ARKodeMemRec, ptr %81, i32 0, i32 77
  %83 = load ptr, ptr %82, align 8, !tbaa !76
  %84 = load ptr, ptr %10, align 8, !tbaa !9
  call void @N_VScale(double noundef 1.000000e+00, ptr noundef %83, ptr noundef %84)
  br label %108

85:                                               ; preds = %21
  %86 = load ptr, ptr %13, align 8, !tbaa !17
  %87 = getelementptr inbounds nuw %struct.ARKodeLSRKStepMemRec, ptr %86, i32 0, i32 0
  %88 = load ptr, ptr %87, align 8, !tbaa !37
  %89 = load double, ptr %8, align 8, !tbaa !7
  %90 = load ptr, ptr %9, align 8, !tbaa !9
  %91 = load ptr, ptr %10, align 8, !tbaa !9
  %92 = load ptr, ptr %7, align 8, !tbaa !13
  %93 = getelementptr inbounds nuw %struct.ARKodeMemRec, ptr %92, i32 0, i32 2
  %94 = load ptr, ptr %93, align 8, !tbaa !75
  %95 = call i32 %88(double noundef %89, ptr noundef %90, ptr noundef %91, ptr noundef %94)
  store i32 %95, ptr %12, align 4, !tbaa !15
  %96 = load ptr, ptr %13, align 8, !tbaa !17
  %97 = getelementptr inbounds nuw %struct.ARKodeLSRKStepMemRec, ptr %96, i32 0, i32 6
  %98 = load i64, ptr %97, align 8, !tbaa !42
  %99 = add nsw i64 %98, 1
  store i64 %99, ptr %97, align 8, !tbaa !42
  %100 = load i32, ptr %12, align 4, !tbaa !15
  %101 = icmp ne i32 %100, 0
  br i1 %101, label %102, label %105

102:                                              ; preds = %85
  %103 = load ptr, ptr %7, align 8, !tbaa !13
  %104 = load double, ptr %8, align 8, !tbaa !7
  call void (ptr, i32, i32, ptr, ptr, ptr, ...) @arkProcessError(ptr noundef %103, i32 noundef -8, i32 noundef 453, ptr noundef @__func__.lsrkStep_FullRHS, ptr noundef @.str, ptr noundef @.str.11, double noundef %104)
  store i32 -8, ptr %6, align 4
  store i32 1, ptr %14, align 4
  br label %109

105:                                              ; preds = %85
  br label %108

106:                                              ; preds = %21
  %107 = load ptr, ptr %7, align 8, !tbaa !13
  call void (ptr, i32, i32, ptr, ptr, ptr, ...) @arkProcessError(ptr noundef %107, i32 noundef -8, i32 noundef 462, ptr noundef @__func__.lsrkStep_FullRHS, ptr noundef @.str, ptr noundef @.str.12)
  store i32 -8, ptr %6, align 4
  store i32 1, ptr %14, align 4
  br label %109

108:                                              ; preds = %105, %80, %49
  store i32 0, ptr %6, align 4
  store i32 1, ptr %14, align 4
  br label %109

109:                                              ; preds = %108, %106, %102, %76, %45, %19
  call void @llvm.lifetime.end.p0(i64 8, ptr %13) #6
  call void @llvm.lifetime.end.p0(i64 4, ptr %12) #6
  %110 = load i32, ptr %6, align 4
  ret i32 %110
}