; Function Attrs: nounwind uwtable
define range(i32 -21, 1) i32 @lsrkStep_FullRHS(ptr noundef %0, double noundef %1, ptr noundef %2, ptr noundef %3, i32 noundef %4) #0 {
  %6 = getelementptr inbounds nuw i8, ptr %0, i64 136
  %7 = load ptr, ptr %6, align 8, !tbaa !3
  %8 = icmp eq ptr %7, null
  br i1 %8, label %lsrkStep_AccessStepMem.exit, label %9

lsrkStep_AccessStepMem.exit:                      ; preds = %5
  tail call void (ptr, i32, i32, ptr, ptr, ptr, ...) @arkProcessError(ptr noundef nonnull %0, i32 noundef -21, i32 noundef 2160, ptr noundef nonnull @__func__.lsrkStep_FullRHS, ptr noundef nonnull @.str, ptr noundef nonnull @.str.39) #13
  br label %50

9:                                                ; preds = %5
  switch i32 %4, label %49 [
    i32 0, label %10
    i32 1, label %22
    i32 2, label %40
  ]

10:                                               ; preds = %9
  %11 = getelementptr inbounds nuw i8, ptr %0, i64 608
  %12 = load i32, ptr %11, align 8, !tbaa !62
  %.not34 = icmp eq i32 %12, 0
  br i1 %.not34, label %13, label %50

13:                                               ; preds = %10
  %14 = load ptr, ptr %7, align 8, !tbaa !49
  %15 = getelementptr inbounds nuw i8, ptr %0, i64 16
  %16 = load ptr, ptr %15, align 8, !tbaa !63
  %17 = tail call i32 %14(double noundef %1, ptr noundef %2, ptr noundef %3, ptr noundef %16) #13
  %18 = getelementptr inbounds nuw i8, ptr %7, i64 32
  %19 = load i64, ptr %18, align 8, !tbaa !64
  %20 = add nsw i64 %19, 1
  store i64 %20, ptr %18, align 8, !tbaa !64
  %.not35 = icmp eq i32 %17, 0
  br i1 %.not35, label %50, label %21

21:                                               ; preds = %13
  tail call void (ptr, i32, i32, ptr, ptr, ptr, ...) @arkProcessError(ptr noundef nonnull %0, i32 noundef -8, i32 noundef 417, ptr noundef nonnull @__func__.lsrkStep_FullRHS, ptr noundef nonnull @.str, ptr noundef nonnull @.str.11, double noundef %1) #13
  br label %50

22:                                               ; preds = %9
  %23 = getelementptr inbounds nuw i8, ptr %7, i64 140
  %24 = load i32, ptr %23, align 4, !tbaa !60
  %.not32 = icmp eq i32 %24, 0
  br i1 %.not32, label %37, label %25

25:                                               ; preds = %22
  %26 = load ptr, ptr %7, align 8, !tbaa !49
  %27 = getelementptr inbounds nuw i8, ptr %0, i64 600
  %28 = load ptr, ptr %27, align 8, !tbaa !65
  %29 = getelementptr inbounds nuw i8, ptr %0, i64 16
  %30 = load ptr, ptr %29, align 8, !tbaa !63
  %31 = tail call i32 %26(double noundef %1, ptr noundef %2, ptr noundef %28, ptr noundef %30) #13
  %32 = getelementptr inbounds nuw i8, ptr %7, i64 32
  %33 = load i64, ptr %32, align 8, !tbaa !64
  %34 = add nsw i64 %33, 1
  store i64 %34, ptr %32, align 8, !tbaa !64
  %35 = getelementptr inbounds nuw i8, ptr %0, i64 608
  store i32 1, ptr %35, align 8, !tbaa !62
  %.not33 = icmp eq i32 %31, 0
  br i1 %.not33, label %37, label %36

36:                                               ; preds = %25
  tail call void (ptr, i32, i32, ptr, ptr, ptr, ...) @arkProcessError(ptr noundef nonnull %0, i32 noundef -8, i32 noundef 437, ptr noundef nonnull @__func__.lsrkStep_FullRHS, ptr noundef nonnull @.str, ptr noundef nonnull @.str.11, double noundef %1) #13
  br label %50

37:                                               ; preds = %25, %22
  %38 = getelementptr inbounds nuw i8, ptr %0, i64 600
  %39 = load ptr, ptr %38, align 8, !tbaa !65
  tail call void @N_VScale(double noundef 1.000000e+00, ptr noundef %39, ptr noundef %3) #13
  br label %50

40:                                               ; preds = %9
  %41 = load ptr, ptr %7, align 8, !tbaa !49
  %42 = getelementptr inbounds nuw i8, ptr %0, i64 16
  %43 = load ptr, ptr %42, align 8, !tbaa !63
  %44 = tail call i32 %41(double noundef %1, ptr noundef %2, ptr noundef %3, ptr noundef %43) #13
  %45 = getelementptr inbounds nuw i8, ptr %7, i64 32
  %46 = load i64, ptr %45, align 8, !tbaa !64
  %47 = add nsw i64 %46, 1
  store i64 %47, ptr %45, align 8, !tbaa !64
  %.not31 = icmp eq i32 %44, 0
  br i1 %.not31, label %50, label %48

48:                                               ; preds = %40
  tail call void (ptr, i32, i32, ptr, ptr, ptr, ...) @arkProcessError(ptr noundef nonnull %0, i32 noundef -8, i32 noundef 453, ptr noundef nonnull @__func__.lsrkStep_FullRHS, ptr noundef nonnull @.str, ptr noundef nonnull @.str.11, double noundef %1) #13
  br label %50

49:                                               ; preds = %9
  tail call void (ptr, i32, i32, ptr, ptr, ptr, ...) @arkProcessError(ptr noundef nonnull %0, i32 noundef -8, i32 noundef 462, ptr noundef nonnull @__func__.lsrkStep_FullRHS, ptr noundef nonnull @.str, ptr noundef nonnull @.str.12) #13
  br label %50

50:                                               ; preds = %lsrkStep_AccessStepMem.exit, %37, %13, %10, %40, %49, %48, %36, %21
  %.0 = phi i32 [ -8, %49 ], [ -8, %48 ], [ -8, %36 ], [ -8, %21 ], [ -21, %lsrkStep_AccessStepMem.exit ], [ 0, %40 ], [ 0, %10 ], [ 0, %13 ], [ 0, %37 ]
  ret i32 %.0
}